target datalayout = "e-m:e-p270:32:32-p271:32:32-p272:64:64-i64:64-i128:128-f80:128-n8:16:32:64-S128"
target triple = "x86_64-pc-linux-gnu"

%struct.Agobj_s = type { %struct.Agtag_s, ptr }
%struct.Agtag_s = type { i32, i64 }
%struct.dtlink_s_ = type { ptr, %union.anon.0 }
%union.anon.0 = type { ptr }
%struct.namev_t = type { %struct.dtlink_s_, ptr, ptr }
%struct.dt_s_ = type { ptr, ptr, %struct.Dtdata_t, ptr, i32, ptr, ptr, ptr }
%struct.Dtdata_t = type { i32, ptr, %union.anon.1, i32, i32, i32 }
%union.anon.1 = type { ptr }

@root = internal global ptr null, align 8
@stderr = external global ptr, align 8
@.str.4 = private unnamed_addr constant [1 x i8] zeroinitializer, align 1
@.str.26 = private unnamed_addr constant [8 x i8] c"_gxl_id\00", align 1
@.str.54 = private unnamed_addr constant [49 x i8] c"out of memory when trying to allocate %zu bytes\0A\00", align 1

; Function Attrs: inlinehint nounwind uwtable
define internal ptr @gv_strdup(ptr noundef %0) #5 {
  %2 = alloca ptr, align 8
  %3 = alloca ptr, align 8
  store ptr %0, ptr %2, align 8, !tbaa !30
  call void @llvm.lifetime.start.p0(i64 8, ptr %3) #14
  %4 = load ptr, ptr %2, align 8, !tbaa !30
  %5 = call noalias ptr @strdup(ptr noundef %4) #14
  store ptr %5, ptr %3, align 8, !tbaa !30
  %6 = load ptr, ptr %3, align 8, !tbaa !30
  %7 = icmp eq ptr %6, null
  br i1 %7, label %8, label %14

8:                                                ; preds = %1
  %9 = load ptr, ptr @stderr, align 8, !tbaa !4
  %10 = load ptr, ptr %2, align 8, !tbaa !30
  %11 = call i64 @strlen(ptr noundef %10) #16
  %12 = add i64 %11, 1
  %13 = call i32 (ptr, ptr, ...) @fprintf(ptr noundef %9, ptr noundef @.str.54, i64 noundef %12) #14
  call void @graphviz_exit(i32 noundef 1) #15
  unreachable

14:                                               ; preds = %1
  %15 = load ptr, ptr %3, align 8, !tbaa !30
  call void @llvm.lifetime.end.p0(i64 8, ptr %3) #14
  ret ptr %15
}

; Function Attrs: nounwind uwtable
define internal void @addToMap(ptr noundef %0, ptr noundef %1, ptr noundef %2) #0 {
  %4 = alloca ptr, align 8
  %5 = alloca ptr, align 8
  %6 = alloca ptr, align 8
  %7 = alloca %struct.namev_t, align 8
  %8 = alloca ptr, align 8
  store ptr %0, ptr %4, align 8, !tbaa !60
  store ptr %1, ptr %5, align 8, !tbaa !30
  store ptr %2, ptr %6, align 8, !tbaa !30
  call void @llvm.lifetime.start.p0(i64 32, ptr %7) #14
  call void @llvm.lifetime.start.p0(i64 8, ptr %8) #14
  %9 = load ptr, ptr %5, align 8, !tbaa !30
  %10 = getelementptr inbounds nuw %struct.namev_t, ptr %7, i32 0, i32 1
  store ptr %9, ptr %10, align 8, !tbaa !52
  %11 = load ptr, ptr %4, align 8, !tbaa !60
  %12 = getelementptr inbounds nuw %struct.dt_s_, ptr %11, i32 0, i32 0
  %13 = load ptr, ptr %12, align 8, !tbaa !61
  %14 = load ptr, ptr %4, align 8, !tbaa !60
  %15 = call ptr %13(ptr noundef %14, ptr noundef %7, i32 noundef 1)
  store ptr %15, ptr %8, align 8, !tbaa !28
  %16 = load ptr, ptr %6, align 8, !tbaa !30
  %17 = call ptr @gv_strdup(ptr noundef %16)
  %18 = load ptr, ptr %8, align 8, !tbaa !28
  %19 = getelementptr inbounds nuw %struct.namev_t, ptr %18, i32 0, i32 2
  store ptr %17, ptr %19, align 8, !tbaa !54
  call void @llvm.lifetime.end.p0(i64 8, ptr %8) #14
  call void @llvm.lifetime.end.p0(i64 32, ptr %7) #14
  ret void
}

; Function Attrs: nounwind uwtable
define internal void @setName(ptr noundef %0, ptr noundef %1, ptr noundef %2) #0 {
  %4 = alloca ptr, align 8
  %5 = alloca ptr, align 8
  %6 = alloca ptr, align 8
  %7 = alloca ptr, align 8
  %8 = alloca ptr, align 8
  store ptr %0, ptr %4, align 8, !tbaa !60
  store ptr %1, ptr %5, align 8, !tbaa !69
  store ptr %2, ptr %6, align 8, !tbaa !30
  call void @llvm.lifetime.start.p0(i64 8, ptr %7) #14
  call void @llvm.lifetime.start.p0(i64 8, ptr %8) #14
  %9 = load ptr, ptr @root, align 8, !tbaa !13
  %10 = load ptr, ptr %5, align 8, !tbaa !69
  %11 = getelementptr inbounds nuw %struct.Agobj_s, ptr %10, i32 0, i32 0
  %12 = load i32, ptr %11, align 8
  %13 = and i32 %12, 3
  %14 = call ptr @agattr(ptr noundef %9, i32 noundef %13, ptr noundef @.str.26, ptr noundef @.str.4)
  store ptr %14, ptr %7, align 8, !tbaa !58
  %15 = load ptr, ptr %5, align 8, !tbaa !69
  %16 = load ptr, ptr %7, align 8, !tbaa !58
  %17 = load ptr, ptr %5, align 8, !tbaa !69
  %18 = call ptr @agnameof(ptr noundef %17)
  %19 = call i32 @agxset(ptr noundef %15, ptr noundef %16, ptr noundef %18)
  %20 = load ptr, ptr %5, align 8, !tbaa !69
  %21 = load ptr, ptr %7, align 8, !tbaa !58
  %22 = call ptr @agxget(ptr noundef %20, ptr noundef %21)
  store ptr %22, ptr %8, align 8, !tbaa !30
  %23 = load ptr, ptr %4, align 8, !tbaa !60
  %24 = load ptr, ptr %8, align 8, !tbaa !30
  %25 = load ptr, ptr %6, align 8, !tbaa !30
  call void @addToMap(ptr noundef %23, ptr noundef %24, ptr noundef %25)
  %26 = load ptr, ptr %5, align 8, !tbaa !69
  %27 = load ptr, ptr %6, align 8, !tbaa !30
  %28 = call i32 @agrename(ptr noundef %26, ptr noundef %27)
  call void @llvm.lifetime.end.p0(i64 8, ptr %8) #14
  call void @llvm.lifetime.end.p0(i64 8, ptr %7) #14
  ret void
}