; Function Attrs: nounwind uwtable
define internal fastcc void @setName(ptr noundef %0, ptr noundef %1, ptr noundef %2) unnamed_addr #0 {
  %4 = alloca %struct.namev_t, align 8
  %5 = load ptr, ptr @root, align 8, !tbaa !18
  %6 = load i32, ptr %1, align 8
  %7 = and i32 %6, 3
  %8 = tail call ptr @agattr(ptr noundef %5, i32 noundef %7, ptr noundef nonnull @.str.26, ptr noundef nonnull @.str.4) #24
  %9 = tail call ptr @agnameof(ptr noundef nonnull %1) #24
  %10 = tail call i32 @agxset(ptr noundef nonnull %1, ptr noundef %8, ptr noundef %9) #24
  %11 = tail call ptr @agxget(ptr noundef nonnull %1, ptr noundef %8) #24
  call void @llvm.lifetime.start.p0(i64 32, ptr nonnull %4) #24
  %12 = getelementptr inbounds nuw i8, ptr %4, i64 16
  store ptr %11, ptr %12, align 8, !tbaa !60
  %13 = load ptr, ptr %0, align 8, !tbaa !37
  %14 = call ptr %13(ptr noundef nonnull %0, ptr noundef nonnull %4, i32 noundef 1) #24
  %15 = call noalias ptr @strdup(ptr noundef readonly %2) #24
  %16 = icmp eq ptr %15, null
  br i1 %16, label %17, label %addToMap.exit

17:                                               ; preds = %3
  %18 = load ptr, ptr @stderr, align 8, !tbaa !20
  %19 = call i64 @strlen(ptr noundef nonnull readonly dereferenceable(1) %2) #27
  %20 = add i64 %19, 1
  %21 = call i32 (ptr, ptr, ...) @fprintf(ptr noundef %18, ptr noundef nonnull @.str.54, i64 noundef %20) #25
  call fastcc void @graphviz_exit() #26
  unreachable

addToMap.exit:                                    ; preds = %3
  %22 = getelementptr inbounds nuw i8, ptr %14, i64 24
  store ptr %15, ptr %22, align 8, !tbaa !42
  call void @llvm.lifetime.end.p0(i64 32, ptr nonnull %4) #24
  %23 = call i32 @agrename(ptr noundef nonnull %1, ptr noundef %2) #24
  ret void
}